target datalayout = "e-m:e-p270:32:32-p271:32:32-p272:64:64-i64:64-i128:128-f80:128-n8:16:32:64-S128"
target triple = "x86_64-pc-linux-gnu"

%class.dtPathQueue = type { [8 x %"struct.dtPathQueue::PathQuery"], i32, i32, i32, ptr }
%"struct.dtPathQueue::PathQuery" = type { i32, [3 x float], [3 x float], i32, i32, ptr, i32, i32, i32, ptr }

; Function Attrs: mustprogress nounwind uwtable
define linkonce_odr noundef zeroext i1 @_Z18dtStatusInProgressj(i32 noundef %0) #0 comdat {
  %2 = alloca i32, align 4
  store i32 %0, ptr %2, align 4
  %3 = load i32, ptr %2, align 4
  %4 = and i32 %3, 536870912
  %5 = icmp ne i32 %4, 0
  ret i1 %5
}

; Function Attrs: mustprogress nounwind uwtable
define linkonce_odr noundef zeroext i1 @_Z14dtStatusFailedj(i32 noundef %0) #0 comdat {
  %2 = alloca i32, align 4
  store i32 %0, ptr %2, align 4
  %3 = load i32, ptr %2, align 4
  %4 = and i32 %3, -2147483648
  %5 = icmp ne i32 %4, 0
  ret i1 %5
}

; Function Attrs: mustprogress nounwind uwtable
define linkonce_odr noundef zeroext i1 @_Z15dtStatusSucceedj(i32 noundef %0) #0 comdat {
  %2 = alloca i32, align 4
  store i32 %0, ptr %2, align 4
  %3 = load i32, ptr %2, align 4
  %4 = and i32 %3, 1073741824
  %5 = icmp ne i32 %4, 0
  ret i1 %5
}

; Function Attrs: mustprogress uwtable
define void @_ZN11dtPathQueue6updateEi(ptr noundef nonnull align 8 dereferenceable(600) %0, i32 noundef %1) #1 align 2 {
  %3 = alloca ptr, align 8
  %4 = alloca i32, align 4
  %5 = alloca i32, align 4
  %6 = alloca i32, align 4
  %7 = alloca ptr, align 8
  %8 = alloca i32, align 4
  store ptr %0, ptr %3, align 8
  store i32 %1, ptr %4, align 4
  %9 = load ptr, ptr %3, align 8
  %10 = load i32, ptr %4, align 4
  store i32 %10, ptr %5, align 4
  store i32 0, ptr %6, align 4
  br label %11

11:                                               ; preds = %124, %2
  %12 = load i32, ptr %6, align 4
  %13 = icmp slt i32 %12, 8
  br i1 %13, label %14, label %127

14:                                               ; preds = %11
  %15 = getelementptr inbounds %class.dtPathQueue, ptr %9, i32 0, i32 0
  %16 = getelementptr inbounds %class.dtPathQueue, ptr %9, i32 0, i32 3
  %17 = load i32, ptr %16, align 8
  %18 = srem i32 %17, 8
  %19 = sext i32 %18 to i64
  %20 = getelementptr inbounds [8 x %"struct.dtPathQueue::PathQuery"], ptr %15, i64 0, i64 %19
  store ptr %20, ptr %7, align 8
  %21 = load ptr, ptr %7, align 8
  %22 = getelementptr inbounds %"struct.dtPathQueue::PathQuery", ptr %21, i32 0, i32 0
  %23 = load i32, ptr %22, align 8
  %24 = icmp eq i32 %23, 0
  br i1 %24, label %25, label %29

25:                                               ; preds = %14
  %26 = getelementptr inbounds %class.dtPathQueue, ptr %9, i32 0, i32 3
  %27 = load i32, ptr %26, align 8
  %28 = add nsw i32 %27, 1
  store i32 %28, ptr %26, align 8
  br label %124

29:                                               ; preds = %14
  %30 = load ptr, ptr %7, align 8
  %31 = getelementptr inbounds %"struct.dtPathQueue::PathQuery", ptr %30, i32 0, i32 7
  %32 = load i32, ptr %31, align 4
  %33 = call noundef zeroext i1 @_Z15dtStatusSucceedj(i32 noundef %32)
  br i1 %33, label %39, label %34

34:                                               ; preds = %29
  %35 = load ptr, ptr %7, align 8
  %36 = getelementptr inbounds %"struct.dtPathQueue::PathQuery", ptr %35, i32 0, i32 7
  %37 = load i32, ptr %36, align 4
  %38 = call noundef zeroext i1 @_Z14dtStatusFailedj(i32 noundef %37)
  br i1 %38, label %39, label %57

39:                                               ; preds = %34, %29
  %40 = load ptr, ptr %7, align 8
  %41 = getelementptr inbounds %"struct.dtPathQueue::PathQuery", ptr %40, i32 0, i32 8
  %42 = load i32, ptr %41, align 8
  %43 = add nsw i32 %42, 1
  store i32 %43, ptr %41, align 8
  %44 = load ptr, ptr %7, align 8
  %45 = getelementptr inbounds %"struct.dtPathQueue::PathQuery", ptr %44, i32 0, i32 8
  %46 = load i32, ptr %45, align 8
  %47 = icmp sgt i32 %46, 2
  br i1 %47, label %48, label %53

48:                                               ; preds = %39
  %49 = load ptr, ptr %7, align 8
  %50 = getelementptr inbounds %"struct.dtPathQueue::PathQuery", ptr %49, i32 0, i32 0
  store i32 0, ptr %50, align 8
  %51 = load ptr, ptr %7, align 8
  %52 = getelementptr inbounds %"struct.dtPathQueue::PathQuery", ptr %51, i32 0, i32 7
  store i32 0, ptr %52, align 4
  br label %53

53:                                               ; preds = %48, %39
  %54 = getelementptr inbounds %class.dtPathQueue, ptr %9, i32 0, i32 3
  %55 = load i32, ptr %54, align 8
  %56 = add nsw i32 %55, 1
  store i32 %56, ptr %54, align 8
  br label %124

57:                                               ; preds = %34
  %58 = load ptr, ptr %7, align 8
  %59 = getelementptr inbounds %"struct.dtPathQueue::PathQuery", ptr %58, i32 0, i32 7
  %60 = load i32, ptr %59, align 4
  %61 = icmp eq i32 %60, 0
  br i1 %61, label %62, label %83

62:                                               ; preds = %57
  %63 = getelementptr inbounds %class.dtPathQueue, ptr %9, i32 0, i32 4
  %64 = load ptr, ptr %63, align 8
  %65 = load ptr, ptr %7, align 8
  %66 = getelementptr inbounds %"struct.dtPathQueue::PathQuery", ptr %65, i32 0, i32 3
  %67 = load i32, ptr %66, align 4
  %68 = load ptr, ptr %7, align 8
  %69 = getelementptr inbounds %"struct.dtPathQueue::PathQuery", ptr %68, i32 0, i32 4
  %70 = load i32, ptr %69, align 8
  %71 = load ptr, ptr %7, align 8
  %72 = getelementptr inbounds %"struct.dtPathQueue::PathQuery", ptr %71, i32 0, i32 1
  %73 = getelementptr inbounds [3 x float], ptr %72, i64 0, i64 0
  %74 = load ptr, ptr %7, align 8
  %75 = getelementptr inbounds %"struct.dtPathQueue::PathQuery", ptr %74, i32 0, i32 2
  %76 = getelementptr inbounds [3 x float], ptr %75, i64 0, i64 0
  %77 = load ptr, ptr %7, align 8
  %78 = getelementptr inbounds %"struct.dtPathQueue::PathQuery", ptr %77, i32 0, i32 9
  %79 = load ptr, ptr %78, align 8
  %80 = call noundef i32 @_ZN14dtNavMeshQuery18initSlicedFindPathEjjPKfS1_PK13dtQueryFilterj(ptr noundef nonnull align 8 dereferenceable(104) %64, i32 noundef %67, i32 noundef %70, ptr noundef %73, ptr noundef %76, ptr noundef %79, i32 noundef 0)
  %81 = load ptr, ptr %7, align 8
  %82 = getelementptr inbounds %"struct.dtPathQueue::PathQuery", ptr %81, i32 0, i32 7
  store i32 %80, ptr %82, align 4
  br label %83

83:                                               ; preds = %62, %57
  %84 = load ptr, ptr %7, align 8
  %85 = getelementptr inbounds %"struct.dtPathQueue::PathQuery", ptr %84, i32 0, i32 7
  %86 = load i32, ptr %85, align 4
  %87 = call noundef zeroext i1 @_Z18dtStatusInProgressj(i32 noundef %86)
  br i1 %87, label %88, label %98

88:                                               ; preds = %83
  store i32 0, ptr %8, align 4
  %89 = getelementptr inbounds %class.dtPathQueue, ptr %9, i32 0, i32 4
  %90 = load ptr, ptr %89, align 8
  %91 = load i32, ptr %5, align 4
  %92 = call noundef i32 @_ZN14dtNavMeshQuery20updateSlicedFindPathEiPi(ptr noundef nonnull align 8 dereferenceable(104) %90, i32 noundef %91, ptr noundef %8)
  %93 = load ptr, ptr %7, align 8
  %94 = getelementptr inbounds %"struct.dtPathQueue::PathQuery", ptr %93, i32 0, i32 7
  store i32 %92, ptr %94, align 4
  %95 = load i32, ptr %8, align 4
  %96 = load i32, ptr %5, align 4
  %97 = sub nsw i32 %96, %95
  store i32 %97, ptr %5, align 4
  br label %98

98:                                               ; preds = %88, %83
  %99 = load ptr, ptr %7, align 8
  %100 = getelementptr inbounds %"struct.dtPathQueue::PathQuery", ptr %99, i32 0, i32 7
  %101 = load i32, ptr %100, align 4
  %102 = call noundef zeroext i1 @_Z15dtStatusSucceedj(i32 noundef %101)
  br i1 %102, label %103, label %116

103:                                              ; preds = %98
  %104 = getelementptr inbounds %class.dtPathQueue, ptr %9, i32 0, i32 4
  %105 = load ptr, ptr %104, align 8
  %106 = load ptr, ptr %7, align 8
  %107 = getelementptr inbounds %"struct.dtPathQueue::PathQuery", ptr %106, i32 0, i32 5
  %108 = load ptr, ptr %107, align 8
  %109 = load ptr, ptr %7, align 8
  %110 = getelementptr inbounds %"struct.dtPathQueue::PathQuery", ptr %109, i32 0, i32 6
  %111 = getelementptr inbounds %class.dtPathQueue, ptr %9, i32 0, i32 2
  %112 = load i32, ptr %111, align 4
  %113 = call noundef i32 @_ZN14dtNavMeshQuery22finalizeSlicedFindPathEPjPii(ptr noundef nonnull align 8 dereferenceable(104) %105, ptr noundef %108, ptr noundef %110, i32 noundef %112)
  %114 = load ptr, ptr %7, align 8
  %115 = getelementptr inbounds %"struct.dtPathQueue::PathQuery", ptr %114, i32 0, i32 7
  store i32 %113, ptr %115, align 4
  br label %116

116:                                              ; preds = %103, %98
  %117 = load i32, ptr %5, align 4
  %118 = icmp sle i32 %117, 0
  br i1 %118, label %119, label %120

119:                                              ; preds = %116
  br label %127

120:                                              ; preds = %116
  %121 = getelementptr inbounds %class.dtPathQueue, ptr %9, i32 0, i32 3
  %122 = load i32, ptr %121, align 8
  %123 = add nsw i32 %122, 1
  store i32 %123, ptr %121, align 8
  br label %124

124:                                              ; preds = %120, %53, %25
  %125 = load i32, ptr %6, align 4
  %126 = add nsw i32 %125, 1
  store i32 %126, ptr %6, align 4
  br label %11, !llvm.loop !8

127:                                              ; preds = %119, %11
  ret void
}