; Function Attrs: mustprogress uwtable
define void @_ZN11dtPathQueue6updateEi(ptr noundef nonnull align 8 dereferenceable(600) %0, i32 noundef %1) local_unnamed_addr #2 align 2 {
  %3 = alloca i32, align 4
  %4 = getelementptr inbounds nuw i8, ptr %0, i64 584
  %5 = getelementptr inbounds nuw i8, ptr %0, i64 592
  %6 = getelementptr inbounds nuw i8, ptr %0, i64 580
  %.pre = load i32, ptr %4, align 8
  br label %7

7:                                                ; preds = %2, %58
  %8 = phi i32 [ %.pre, %2 ], [ %59, %58 ]
  %.029 = phi i32 [ %1, %2 ], [ %.1, %58 ]
  %.02628 = phi i32 [ 0, %2 ], [ %60, %58 ]
  %9 = srem i32 %8, 8
  %10 = sext i32 %9 to i64
  %11 = getelementptr inbounds [8 x %"struct.dtPathQueue::PathQuery"], ptr %0, i64 0, i64 %10
  %12 = load i32, ptr %11, align 8
  %13 = icmp eq i32 %12, 0
  br i1 %13, label %58, label %14

14:                                               ; preds = %7
  %15 = getelementptr inbounds nuw i8, ptr %11, i64 52
  %16 = load i32, ptr %15, align 4
  %or.cond.not = icmp ult i32 %16, 1073741824
  br i1 %or.cond.not, label %23, label %17

17:                                               ; preds = %14
  %18 = getelementptr inbounds nuw i8, ptr %11, i64 56
  %19 = load i32, ptr %18, align 8
  %20 = add nsw i32 %19, 1
  store i32 %20, ptr %18, align 8
  %21 = icmp sgt i32 %19, 1
  br i1 %21, label %22, label %58

22:                                               ; preds = %17
  store i32 0, ptr %11, align 8
  store i32 0, ptr %15, align 4
  br label %58

23:                                               ; preds = %14
  %24 = icmp eq i32 %16, 0
  br i1 %24, label %25, label %36

25:                                               ; preds = %23
  %26 = load ptr, ptr %5, align 8
  %27 = getelementptr inbounds nuw i8, ptr %11, i64 28
  %28 = load i32, ptr %27, align 4
  %29 = getelementptr inbounds nuw i8, ptr %11, i64 32
  %30 = load i32, ptr %29, align 8
  %31 = getelementptr inbounds nuw i8, ptr %11, i64 4
  %32 = getelementptr inbounds nuw i8, ptr %11, i64 16
  %33 = getelementptr inbounds nuw i8, ptr %11, i64 64
  %34 = load ptr, ptr %33, align 8
  %35 = call noundef i32 @_ZN14dtNavMeshQuery18initSlicedFindPathEjjPKfS1_PK13dtQueryFilterj(ptr noundef nonnull align 8 dereferenceable(104) %26, i32 noundef %28, i32 noundef %30, ptr noundef nonnull %31, ptr noundef nonnull %32, ptr noundef %34, i32 noundef 0)
  store i32 %35, ptr %15, align 4
  br label %36

36:                                               ; preds = %25, %23
  %37 = phi i32 [ %35, %25 ], [ %16, %23 ]
  %38 = and i32 %37, 536870912
  %.not = icmp eq i32 %38, 0
  br i1 %.not, label %44, label %39

39:                                               ; preds = %36
  store i32 0, ptr %3, align 4
  %40 = load ptr, ptr %5, align 8
  %41 = call noundef i32 @_ZN14dtNavMeshQuery20updateSlicedFindPathEiPi(ptr noundef nonnull align 8 dereferenceable(104) %40, i32 noundef %.029, ptr noundef nonnull %3)
  store i32 %41, ptr %15, align 4
  %42 = load i32, ptr %3, align 4
  %43 = sub nsw i32 %.029, %42
  br label %44

44:                                               ; preds = %39, %36
  %45 = phi i32 [ %41, %39 ], [ %37, %36 ]
  %.2 = phi i32 [ %43, %39 ], [ %.029, %36 ]
  %46 = and i32 %45, 1073741824
  %.not27 = icmp eq i32 %46, 0
  br i1 %.not27, label %54, label %47

47:                                               ; preds = %44
  %48 = load ptr, ptr %5, align 8
  %49 = getelementptr inbounds nuw i8, ptr %11, i64 40
  %50 = load ptr, ptr %49, align 8
  %51 = getelementptr inbounds nuw i8, ptr %11, i64 48
  %52 = load i32, ptr %6, align 4
  %53 = call noundef i32 @_ZN14dtNavMeshQuery22finalizeSlicedFindPathEPjPii(ptr noundef nonnull align 8 dereferenceable(104) %48, ptr noundef %50, ptr noundef nonnull %51, i32 noundef %52)
  store i32 %53, ptr %15, align 4
  br label %54

54:                                               ; preds = %47, %44
  %55 = icmp slt i32 %.2, 1
  br i1 %55, label %61, label %56

56:                                               ; preds = %54
  %57 = load i32, ptr %4, align 8
  br label %58

58:                                               ; preds = %17, %22, %7, %56
  %.sink30 = phi i32 [ %57, %56 ], [ %8, %7 ], [ %8, %22 ], [ %8, %17 ]
  %.1 = phi i32 [ %.2, %56 ], [ %.029, %7 ], [ %.029, %22 ], [ %.029, %17 ]
  %59 = add nsw i32 %.sink30, 1
  store i32 %59, ptr %4, align 8
  %60 = add nuw nsw i32 %.02628, 1
  %exitcond.not = icmp eq i32 %60, 8
  br i1 %exitcond.not, label %61, label %7, !llvm.loop !8

61:                                               ; preds = %54, %58
  ret void
}